
Memory Configuration

Name             Origin             Length             Attributes
*default*        0x0000000000000000 0xffffffffffffffff

Linker script and memory map

TARGET(elf32-littlearm)

.text           0x0000000000000000     0x1818
 *(.text)
 .text          0x0000000000000000      0x300 tmp/arm.v5a-linux.elf-fold.o
                0x0000000000000008                get_page_mask
                0x00000000000002e4                mempcpy
                0x0000000000000068                mmap
                0x0000000000000050                mmap_privanon
                0x00000000000002cc                my_memset
                0x0000000000000010                get_upxfn_path
                0x0000000000000028                Pprotect
                0x00000000fffffff4                PAGE_MASK
                0x0000000000000028                mprotect
 .text          0x0000000000000300      0x344 tmp/arm.v5a-linux.elf-upxfd_android.o
                0x0000000000000370                upx_mmap_and_fd
 .text          0x0000000000000644        0x0 tmp/arm.v5a-expand.o
 .text          0x0000000000000644     0x11d4 tmp/arm.v5a-linux.elf-main.o
                0x00000000000015c4                upx_main
 *(.data)
 .data          0x0000000000001818        0x0 tmp/arm.v5a-linux.elf-fold.o
 .data          0x0000000000001818        0x0 tmp/arm.v5a-linux.elf-upxfd_android.o
 .data          0x0000000000001818        0x0 tmp/arm.v5a-expand.o
 .data          0x0000000000001818        0x0 tmp/arm.v5a-linux.elf-main.o

SYSCALLS        0x0000000000000000      0x1f0
 SYSCALLS       0x0000000000000000      0x1f0 tmp/arm.v5a-linux.elf-fold.o
                0x00000000000000c8                munmap
                0x0000000000000000                get_sys_munmap
                0x000000000000006c                getpid
                0x0000000000000104                readlink
                0x0000000000000194                __udivsi3
                0x0000000000000058                ftruncate
                0x0000000000000080                lseek
                0x0000000000000168                __clear_cache
                0x000000000000012c                uname
                0x0000000000000154                write
                0x0000000000000044                fstat
                0x0000000000000094                memfd_create
                0x00000000000000f0                read
                0x0000000000000140                unlink
                0x000000000000018c                my_bkpt
                0x0000000000000118                stat
                0x0000000000000034                exit
                0x000000000000000c                brk
                0x00000000000000dc                open
                0x0000000000000194                div10
                0x00000000000000b4                mkdir
                0x0000000000000020                close

EXP_HEAD        0x0000000000000000       0xdc
 EXP_HEAD       0x0000000000000000       0xdc tmp/arm.v5a-expand.o
                0x0000000000000070                f_expand

EXP_TAIL        0x0000000000000000       0x24
 EXP_TAIL       0x0000000000000000       0x24 tmp/arm.v5a-expand.o
                0x0000000000000000                eof

NRV2E           0x0000000000000000      0x114
 NRV2E          0x0000000000000000      0x114 tmp/arm.v5a-expand.o
                0x0000000000000000                ucl_nrv2e_decompress_8

NRV2D           0x0000000000000000      0x100
 NRV2D          0x0000000000000000      0x100 tmp/arm.v5a-expand.o
                0x0000000000000000                ucl_nrv2d_decompress_8

NRV2B           0x0000000000000000       0xc4
 NRV2B          0x0000000000000000       0xc4 tmp/arm.v5a-expand.o
                0x0000000000000000                ucl_nrv2b_decompress_8

.data

.bss            0x0000000000000000        0x0
 .bss           0x0000000000000000        0x0 tmp/arm.v5a-linux.elf-fold.o
 .bss           0x0000000000000000        0x0 tmp/arm.v5a-linux.elf-upxfd_android.o
 .bss           0x0000000000000000        0x0 tmp/arm.v5a-expand.o
 .bss           0x0000000000000000        0x0 tmp/arm.v5a-linux.elf-main.o
LOAD tmp/arm.v5a-linux.elf-fold.o
LOAD tmp/arm.v5a-linux.elf-upxfd_android.o
LOAD tmp/arm.v5a-expand.o
LOAD tmp/arm.v5a-linux.elf-main.o
OUTPUT(tmp/arm.v5a-linux.elf-fold.bin elf32-littlearm)

LZMA_ELF00      0x0000000000000000       0x90
 LZMA_ELF00     0x0000000000000000       0x90 tmp/arm.v5a-expand.o

LZMA_DEC20      0x0000000000000000      0x938
 LZMA_DEC20     0x0000000000000000      0x938 tmp/arm.v5a-expand.o

LZMA_DEC10      0x0000000000000000      0x478
 LZMA_DEC10     0x0000000000000000      0x478 tmp/arm.v5a-expand.o
                0x0000000000000000                LzmaDecode

LZMA_DEC30      0x0000000000000000        0x0
 LZMA_DEC30     0x0000000000000000        0x0 tmp/arm.v5a-expand.o
