
Memory Configuration

Name             Origin             Length             Attributes
*default*        0x0000000000000000 0xffffffffffffffff

Linker script and memory map

                0x00000000001000bc                . = ((0x100000 + SIZEOF_HEADERS) + 0xc)

.text           0x00000000001000bc      0xb78
 *(.text)
 .text          0x00000000001000bc      0x2fc tmp/arm64-linux.elf-fold.o
                0x000000000010028c                my_bkpt
                0x0000000000100294                exit
                0x000000000010029c                ftruncate
                0x00000000001002a8                memfd_create
                0x00000000001002b4                read
                0x00000000001002c0                write
                0x00000000001002c0                Pwrite
                0x00000000001002cc                close
                0x00000000001002d8                getpid
                0x00000000001002e4                brk
                0x00000000001002f0                munmap
                0x00000000001002f0                Punmap
                0x0000000000100308                Pprotect
                0x0000000000100308                mprotect
                0x0000000000100320                mmap_privanon
                0x0000000000100330                Pmap
                0x0000000000100330                mmap
                0x0000000000100348                unlink
                0x000000000010035c                readlink
                0x0000000000100364                open
                0x0000000000100380                memcpy
                0x0000000000100394                my_memset
                0x00000000001003a4                __clear_cache
 .text          0x00000000001003b8      0x884 tmp/arm64-linux.elf-main.o
                0x000000000010056c                underlay
                0x00000000001005d8                PF_TO_PROT
                0x0000000000100af8                upx_main
 .text          0x0000000000100c3c        0x0 tmp/arm64-expand.o
 *(.data)
 .data          0x0000000000100c34        0x0 tmp/arm64-linux.elf-fold.o
 .data          0x0000000000100c34        0x0 tmp/arm64-linux.elf-main.o
 .data          0x0000000000100c34        0x0 tmp/arm64-expand.o

.iplt           0x0000000000100c34        0x0
 .iplt          0x0000000000100c34        0x0 tmp/arm64-linux.elf-fold.o

.rela.dyn       0x0000000000100c38        0x0
 .rela.iplt     0x0000000000100c38        0x0 tmp/arm64-linux.elf-fold.o

.data
LOAD tmp/arm64-linux.elf-fold.o
LOAD tmp/arm64-linux.elf-main.o
LOAD tmp/arm64-expand.o
OUTPUT(tmp/arm64-linux.elf-fold.bin elf64-littleaarch64)

.igot.plt       0x0000000000100c38        0x0
 .igot.plt      0x0000000000100c38        0x0 tmp/arm64-linux.elf-fold.o

.bss            0x0000000000100c34        0x0
 .bss           0x0000000000100c34        0x0 tmp/arm64-linux.elf-fold.o
 .bss           0x0000000000100c34        0x0 tmp/arm64-linux.elf-main.o
 .bss           0x0000000000100c34        0x0 tmp/arm64-expand.o

EXP_HEAD        0x0000000000000000      0x104
                0x0000000000000000                PROVIDE (__start_EXP_HEAD, .)
 EXP_HEAD       0x0000000000000000      0x104 tmp/arm64-expand.o
                0x0000000000000000                f_expand
                0x0000000000000104                PROVIDE (__stop_EXP_HEAD, .)

EXP_TAIL        0x0000000000000000       0x20
                0x0000000000000000                PROVIDE (__start_EXP_TAIL, .)
 EXP_TAIL       0x0000000000000000       0x20 tmp/arm64-expand.o
                0x0000000000000000                eof
                0x0000000000000020                PROVIDE (__stop_EXP_TAIL, .)

NRV2E           0x0000000000000000      0x17c
                0x0000000000000000                PROVIDE (__start_NRV2E, .)
 NRV2E          0x0000000000000000      0x17c tmp/arm64-expand.o
                0x0000000000000000                ucl_nrv2e_decompress_32
                0x000000000000017c                PROVIDE (__stop_NRV2E, .)

NRV2D           0x0000000000000000      0x170
                0x0000000000000000                PROVIDE (__start_NRV2D, .)
 NRV2D          0x0000000000000000      0x170 tmp/arm64-expand.o
                0x0000000000000000                ucl_nrv2d_decompress_32
                0x0000000000000170                PROVIDE (__stop_NRV2D, .)

NRV2B           0x0000000000000000      0x144
                0x0000000000000000                PROVIDE (__start_NRV2B, .)
 NRV2B          0x0000000000000000      0x144 tmp/arm64-expand.o
                0x0000000000000000                ucl_nrv2b_decompress_32
                0x0000000000000144                PROVIDE (__stop_NRV2B, .)

LZMA_ELF00      0x0000000000000000      0x10c
                0x0000000000000000                PROVIDE (__start_LZMA_ELF00, .)
 LZMA_ELF00     0x0000000000000000      0x10c tmp/arm64-expand.o
                0x000000000000010c                PROVIDE (__stop_LZMA_ELF00, .)

LZMA_DEC20      0x0000000000000000      0x968
                0x0000000000000000                PROVIDE (__start_LZMA_DEC20, .)
 LZMA_DEC20     0x0000000000000000      0x968 tmp/arm64-expand.o
                0x0000000000000968                PROVIDE (__stop_LZMA_DEC20, .)

LZMA_DEC10      0x0000000000000000      0x4a0
                0x0000000000000000                PROVIDE (__start_LZMA_DEC10, .)
 LZMA_DEC10     0x0000000000000000      0x4a0 tmp/arm64-expand.o
                0x0000000000000000                LzmaDecode
                0x00000000000004a0                PROVIDE (__stop_LZMA_DEC10, .)

LZMA_DEC30      0x0000000000000000        0x0
                0x0000000000000000                PROVIDE (__start_LZMA_DEC30, .)
 LZMA_DEC30     0x0000000000000000        0x0 tmp/arm64-expand.o
                0x0000000000000000                PROVIDE (__stop_LZMA_DEC30, .)
