
Memory Configuration

Name             Origin             Length             Attributes
*default*        0x0000000000000000 0xffffffffffffffff

Linker script and memory map

                0x000000000000004c                . = (SIZEOF_HEADERS + 0xc)
LOAD tmp/arm64-linux.elf-fold.o
LOAD tmp/arm64-expand.o
LOAD tmp/arm64-linux.elf-main.o
OUTPUT(tmp/arm64-linux.elf-fold.bin elf64-littleaarch64)

.text           0x0000000000000000      0xa7c
 .text          0x0000000000000000      0x230 tmp/arm64-linux.elf-fold.o
                0x0000000000000010                get_page_mask
                0x0000000000000018                mmap_privanon
                0x0000000000000028                mmap
                0x0000000000000044                munmap
                0x0000000000000060                Pprotect
                0x0000000000000060                mprotect
 .text          0x0000000000000230        0x0 tmp/arm64-expand.o
 .text          0x0000000000000230      0x84c tmp/arm64-linux.elf-main.o
                0x00000000000008dc                underlay
                0x0000000000000948                upx_main

.data           0x0000000000000000        0x0
 .data          0x0000000000000000        0x0 tmp/arm64-linux.elf-fold.o
 .data          0x0000000000000000        0x0 tmp/arm64-expand.o
 .data          0x0000000000000000        0x0 tmp/arm64-linux.elf-main.o

.bss            0x0000000000000000        0x0
 .bss           0x0000000000000000        0x0 tmp/arm64-linux.elf-fold.o
 .bss           0x0000000000000000        0x0 tmp/arm64-expand.o
 .bss           0x0000000000000000        0x0 tmp/arm64-linux.elf-main.o

SYSCALLS        0x0000000000000000       0xcc
 SYSCALLS       0x0000000000000000       0xcc tmp/arm64-linux.elf-fold.o
                0x0000000000000000                my_bkpt
                0x0000000000000008                exit
                0x0000000000000010                brk
                0x000000000000001c                close
                0x0000000000000028                ftruncate
                0x0000000000000034                getpid
                0x0000000000000040                memfd_create
                0x000000000000004c                read
                0x0000000000000058                unlink
                0x0000000000000064                write
                0x0000000000000064                Pwrite
                0x0000000000000070                readlink
                0x0000000000000078                open
                0x0000000000000094                memcpy
                0x00000000000000a8                my_memset
                0x00000000000000b8                __clear_cache

EXP_HEAD        0x0000000000000000      0x104
 EXP_HEAD       0x0000000000000000      0x104 tmp/arm64-expand.o
                0x0000000000000000                f_expand

EXP_TAIL        0x0000000000000000       0x20
 EXP_TAIL       0x0000000000000000       0x20 tmp/arm64-expand.o
                0x0000000000000000                eof

NRV2E           0x0000000000000000      0x17c
 NRV2E          0x0000000000000000      0x17c tmp/arm64-expand.o
                0x0000000000000000                ucl_nrv2e_decompress_32

NRV2D           0x0000000000000000      0x170
 NRV2D          0x0000000000000000      0x170 tmp/arm64-expand.o
                0x0000000000000000                ucl_nrv2d_decompress_32

NRV2B           0x0000000000000000      0x144
 NRV2B          0x0000000000000000      0x144 tmp/arm64-expand.o
                0x0000000000000000                ucl_nrv2b_decompress_32

LZMA_ELF00      0x0000000000000000      0x10c
 LZMA_ELF00     0x0000000000000000      0x10c tmp/arm64-expand.o

LZMA_DEC20      0x0000000000000000      0x968
 LZMA_DEC20     0x0000000000000000      0x968 tmp/arm64-expand.o

LZMA_DEC10      0x0000000000000000      0x4a0
 LZMA_DEC10     0x0000000000000000      0x4a0 tmp/arm64-expand.o
                0x0000000000000000                LzmaDecode

LZMA_DEC30      0x0000000000000000        0x0
 LZMA_DEC30     0x0000000000000000        0x0 tmp/arm64-expand.o
