
Memory Configuration

Name             Origin             Length             Attributes
*default*        0x0000000000000000 0xffffffffffffffff

Linker script and memory map


.rodata         0x0000000000000000        0xc
 .rodata        0x0000000000000000        0xc tmp/mipsel.r3000-linux.elf-fold.o
TARGET(elf32-littlemips)
                0x0000000000100040                . = ((0x100000 + SIZEOF_HEADERS) + 0xc)

.text           0x0000000000100040      0xcbc
 *(.text)
 .text          0x0000000000100040      0xcbc tmp/mipsel.r3000-linux.elf-fold.o
                0x00000000001000c8                get_page_mask
                0x0000000000100320                munmap
                0x00000000001002f8                getpid
                0x0000000000100c50                upx_mmap_and_fd
                0x0000000000100340                readlink
                0x0000000000100270                mempcpy
                0x00000000001002f0                ftruncate
                0x0000000000100300                lseek
                0x00000000001002a4                mmap
                0x0000000000100248                __clear_cache
                0x0000000000100298                mmap_privanon
                0x0000000000100348                uname
                0x0000000000100250                my_memset
                0x0000000000100358                write
                0x00000000001000d8                get_upxfn_path
                0x0000000000100308                memfd_create
                0x0000000000100338                read
                0x0000000000100350                unlink
                0x000000000010023c                my_bkpt
                0x000000000010021c                Pprotect
                0x0000000000100328                stat
                0x00000000001002e8                exit
                0x0000000000100ad8                upx_main
                0x00000000001002e0                brk
                0x0000000000100330                open
                0x0000000000100038                PAGE_MASK
                0x0000000000100318                mprotect
                0x0000000000100310                mkdir
                0x0000000000100104                close
 *(.data)
 .data          0x0000000000100cfc        0x0 tmp/mipsel.r3000-linux.elf-fold.o

EXP_HEAD        0x0000000000000000        0x4
 EXP_HEAD       0x0000000000000000        0x4 tmp/mipsel.r3000-linux.elf-fold.o
                0x0000000000000000                f_expand

EXP_TAIL        0x0000000000000000        0x4
 EXP_TAIL       0x0000000000000000        0x4 tmp/mipsel.r3000-linux.elf-fold.o

NRV2E           0x0000000000000000        0x0
 NRV2E          0x0000000000000000        0x0 tmp/mipsel.r3000-linux.elf-fold.o

NRV2D           0x0000000000000000        0x0
 NRV2D          0x0000000000000000        0x0 tmp/mipsel.r3000-linux.elf-fold.o

NRV2B           0x0000000000000000        0x0
 NRV2B          0x0000000000000000        0x0 tmp/mipsel.r3000-linux.elf-fold.o

.data

.bss            0x0000000000000000        0x0
 .bss           0x0000000000000000        0x0 tmp/mipsel.r3000-linux.elf-fold.o
LOAD tmp/mipsel.r3000-linux.elf-fold.o
OUTPUT(tmp/mipsel.r3000-linux.elf-fold.bin elf32-littlemips)

.reginfo        0x0000000000000000       0x18
 .reginfo       0x0000000000000000       0x18 tmp/mipsel.r3000-linux.elf-fold.o

.mdebug.eabi32  0x0000000000000000        0x0
 .mdebug.eabi32
                0x0000000000000000        0x0 tmp/mipsel.r3000-linux.elf-fold.o

.gcc_compiled_long32
                0x0000000000000000        0x0
 .gcc_compiled_long32
                0x0000000000000000        0x0 tmp/mipsel.r3000-linux.elf-fold.o

.comment        0x0000000000000000       0x23
 .comment       0x0000000000000000       0x23 tmp/mipsel.r3000-linux.elf-fold.o
