
Memory Configuration

Name             Origin             Length             Attributes
*default*        0x0000000000000000 0xffffffffffffffff

Linker script and memory map

TARGET(elf32-littlemips)

.text           0x0000000000000000      0xbe0
 *(.text)
 .text          0x0000000000000000      0xbe0 tmp/mipsel.r3000-linux.elf-fold.o
                0x0000000000000090                get_page_mask
                0x0000000000000b30                upx_mmap_and_fd
                0x00000000000000ac                get_upxfn_path
                0x0000000000000298                unpackExtent
                0x00000000000009b8                upx_main
                0x0000000000000000                PAGE_MASK
                0x00000000000000dc                close
 *(.data)
 .data          0x0000000000000be0        0x0 tmp/mipsel.r3000-linux.elf-fold.o

SYSCALLS        0x0000000000000000      0x158
 SYSCALLS       0x0000000000000000      0x158 tmp/mipsel.r3000-linux.elf-fold.o
                0x0000000000000118                munmap
                0x00000000000000f0                getpid
                0x0000000000000138                readlink
                0x0000000000000068                mempcpy
                0x00000000000000e8                ftruncate
                0x00000000000000f8                lseek
                0x000000000000009c                mmap
                0x0000000000000040                __clear_cache
                0x0000000000000090                mmap_privanon
                0x0000000000000140                uname
                0x0000000000000048                my_memset
                0x0000000000000150                write
                0x0000000000000100                memfd_create
                0x0000000000000130                read
                0x0000000000000148                unlink
                0x0000000000000034                my_bkpt
                0x0000000000000000                Pprotect
                0x0000000000000120                stat
                0x00000000000000e0                exit
                0x00000000000000d8                brk
                0x0000000000000128                open
                0x0000000000000110                mprotect
                0x0000000000000108                mkdir

EXP_HEAD        0x0000000000000000       0x98
 EXP_HEAD       0x0000000000000000       0x98 tmp/mipsel.r3000-linux.elf-fold.o
                0x0000000000000000                f_expand

EXP_TAIL        0x0000000000000000       0x34
 EXP_TAIL       0x0000000000000000       0x34 tmp/mipsel.r3000-linux.elf-fold.o

NRV2E           0x0000000000000000      0x12c
 NRV2E          0x0000000000000000      0x12c tmp/mipsel.r3000-linux.elf-fold.o

NRV2D           0x0000000000000000      0x11c
 NRV2D          0x0000000000000000      0x11c tmp/mipsel.r3000-linux.elf-fold.o

NRV2B           0x0000000000000000      0x100
 NRV2B          0x0000000000000000      0x100 tmp/mipsel.r3000-linux.elf-fold.o

CFLUSH          0x0000000000000000       0x24
 CFLUSH         0x0000000000000000       0x24 tmp/mipsel.r3000-linux.elf-fold.o

LZMA_DEC30      0x0000000000000000        0x8
 LZMA_DEC30     0x0000000000000000        0x8 tmp/mipsel.r3000-linux.elf-fold.o

LZMA_ELF00      0x0000000000000000       0x9c
 LZMA_ELF00     0x0000000000000000       0x9c tmp/mipsel.r3000-linux.elf-fold.o

LZMA_DEC10      0x0000000000000000      0xad8
 LZMA_DEC10     0x0000000000000000      0xad8 tmp/mipsel.r3000-linux.elf-fold.o

LZMA_DEC20      0x0000000000000000      0xad8
 LZMA_DEC20     0x0000000000000000      0xad8 tmp/mipsel.r3000-linux.elf-fold.o

.data

.bss            0x0000000000000000        0x0
 .bss           0x0000000000000000        0x0 tmp/mipsel.r3000-linux.elf-fold.o
LOAD tmp/mipsel.r3000-linux.elf-fold.o
OUTPUT(tmp/mipsel.r3000-linux.elf-fold.bin elf32-littlemips)

.reginfo        0x0000000000000000       0x18
 .reginfo       0x0000000000000000       0x18 tmp/mipsel.r3000-linux.elf-fold.o

.mdebug.eabi32  0x0000000000000000        0x0
 .mdebug.eabi32
                0x0000000000000000        0x0 tmp/mipsel.r3000-linux.elf-fold.o

.gcc_compiled_long32
                0x0000000000000000        0x0
 .gcc_compiled_long32
                0x0000000000000000        0x0 tmp/mipsel.r3000-linux.elf-fold.o

.comment        0x0000000000000000       0x23
 .comment       0x0000000000000000       0x23 tmp/mipsel.r3000-linux.elf-fold.o
