
Memory Configuration

Name             Origin             Length             Attributes
*default*        0x0000000000000000 0xffffffffffffffff

Linker script and memory map

TARGET(elf32-bigmips)
                0x0000000000100040                . = ((0x100000 + SIZEOF_HEADERS) + 0xc)

.text           0x0000000000100040      0xc80
 *(.text)
 .text          0x0000000000100040      0xc80 tmp/mips.r3000-linux.elf-fold.o
                0x00000000001000c8                get_page_mask
                0x0000000000100314                munmap
                0x00000000001002ec                getpid
                0x0000000000100c14                upx_mmap_and_fd
                0x0000000000100334                readlink
                0x0000000000100264                mempcpy
                0x00000000001002e4                ftruncate
                0x00000000001002f4                lseek
                0x0000000000100298                mmap
                0x000000000010023c                __clear_cache
                0x000000000010028c                mmap_privanon
                0x000000000010033c                uname
                0x0000000000100244                my_memset
                0x000000000010034c                write
                0x00000000001000e4                get_upxfn_path
                0x00000000001002fc                memfd_create
                0x000000000010032c                read
                0x0000000000100344                unlink
                0x0000000000100230                my_bkpt
                0x0000000000100210                Pprotect
                0x000000000010031c                stat
                0x00000000001002dc                exit
                0x0000000000100a9c                upx_main
                0x00000000001002d4                brk
                0x0000000000100324                open
                0x0000000000100038                PAGE_MASK
                0x000000000010030c                mprotect
                0x0000000000100304                mkdir
                0x0000000000100114                close
 *(.data)
 .data          0x0000000000100cc0        0x0 tmp/mips.r3000-linux.elf-fold.o

EXP_HEAD        0x0000000000000000       0x90
 EXP_HEAD       0x0000000000000000       0x90 tmp/mips.r3000-linux.elf-fold.o
                0x0000000000000000                f_expand

EXP_TAIL        0x0000000000000000       0x34
 EXP_TAIL       0x0000000000000000       0x34 tmp/mips.r3000-linux.elf-fold.o
                0x0000000000000004                eof

NRV2E           0x0000000000000000        0x0
 NRV2E          0x0000000000000000        0x0 tmp/mips.r3000-linux.elf-fold.o

NRV2D           0x0000000000000000        0x0
 NRV2D          0x0000000000000000        0x0 tmp/mips.r3000-linux.elf-fold.o

NRV2B           0x0000000000000000        0x0
 NRV2B          0x0000000000000000        0x0 tmp/mips.r3000-linux.elf-fold.o

LZMA_DEC10      0x0000000000000000      0xad8
 LZMA_DEC10     0x0000000000000000      0xad8 tmp/mips.r3000-linux.elf-fold.o

LZMA_DEC20      0x0000000000000000      0xad8
 LZMA_DEC20     0x0000000000000000      0xad8 tmp/mips.r3000-linux.elf-fold.o

.data

.bss            0x0000000000000000        0x0
 .bss           0x0000000000000000        0x0 tmp/mips.r3000-linux.elf-fold.o
LOAD tmp/mips.r3000-linux.elf-fold.o
OUTPUT(tmp/mips.r3000-linux.elf-fold.bin elf32-bigmips)

.reginfo        0x0000000000000000       0x18
 .reginfo       0x0000000000000000       0x18 tmp/mips.r3000-linux.elf-fold.o

.mdebug.eabi32  0x0000000000000000        0x0
 .mdebug.eabi32
                0x0000000000000000        0x0 tmp/mips.r3000-linux.elf-fold.o

.gcc_compiled_long32
                0x0000000000000000        0x0
 .gcc_compiled_long32
                0x0000000000000000        0x0 tmp/mips.r3000-linux.elf-fold.o

.comment        0x0000000000000000       0x23
 .comment       0x0000000000000000       0x23 tmp/mips.r3000-linux.elf-fold.o
