
Memory Configuration

Name             Origin             Length             Attributes
*default*        0x0000000000000000 0xffffffffffffffff

Linker script and memory map

TARGET(elf64-powerpc)
                0x000000000010004c                . = ((0x100000 + SIZEOF_HEADERS) + 0xc)

.text           0x000000000010004c      0xd0c
 *(.text)
 .text          0x000000000010004c      0x39c tmp/powerpc64-linux.elf-fold.o
                0x000000000010004c                get_page_mask
                0x0000000000100324                Pmap
                0x0000000000100334                mmap
                0x000000000010034c                Pprotect
                0x000000000010034c                mprotect
                0x0000000000100364                Punmap
                0x0000000000100374                munmap
                0x000000000010037c                memfd_create
                0x0000000000100384                ftruncate
                0x000000000010038c                exit
                0x0000000000100394                brk
                0x000000000010039c                readlink
                0x00000000001003a4                Pwrite
                0x00000000001003ac                read
                0x00000000001003b4                open
                0x00000000001003bc                close
                0x00000000001003c4                memcpy
                0x00000000001003e0                my_bkpt
 .text          0x00000000001003e8      0x970 tmp/powerpc64-linux.elf-main.o
 .text          0x0000000000100d58        0x0 tmp/powerpc64-expand.o
 *(.data)
 .data          0x0000000000100d58        0x0 tmp/powerpc64-linux.elf-fold.o
 .data          0x0000000000100d58        0x0 tmp/powerpc64-linux.elf-main.o
 .data          0x0000000000100d58        0x0 tmp/powerpc64-expand.o

.data
LOAD tmp/powerpc64-linux.elf-fold.o
LOAD tmp/powerpc64-linux.elf-main.o
LOAD tmp/powerpc64-expand.o
OUTPUT(tmp/powerpc64-linux.elf-fold.bin elf64-powerpc)

.toc            0x0000000000000000        0x0
 .toc           0x0000000000000000        0x0 tmp/powerpc64-linux.elf-main.o

.opd            0x0000000000000000       0x80
 .opd           0x0000000000000000       0x80 tmp/powerpc64-linux.elf-main.o
                0x0000000000000040                underlay
                0x0000000000000050                PF_TO_PROT
                0x0000000000000070                upx_main

.bss            0x0000000000000000        0x0
 .bss           0x0000000000000000        0x0 tmp/powerpc64-linux.elf-fold.o
 .bss           0x0000000000000000        0x0 tmp/powerpc64-linux.elf-main.o
 .bss           0x0000000000000000        0x0 tmp/powerpc64-expand.o

EXP_HEAD        0x0000000000000000       0xdc
 EXP_HEAD       0x0000000000000000       0xdc tmp/powerpc64-expand.o
                0x0000000000000000                f_expand

EXP_TAIL        0x0000000000000000       0x1c
 EXP_TAIL       0x0000000000000000       0x1c tmp/powerpc64-expand.o
                0x0000000000000000                eof_nrv

NRV2E           0x0000000000000000      0x148
 NRV2E          0x0000000000000000      0x148 tmp/powerpc64-expand.o

NRV2D           0x0000000000000000      0x12c
 NRV2D          0x0000000000000000      0x12c tmp/powerpc64-expand.o

NRV2B           0x0000000000000000       0xf0
 NRV2B          0x0000000000000000       0xf0 tmp/powerpc64-expand.o

LZMA_ELF00      0x0000000000000000       0x90
 LZMA_ELF00     0x0000000000000000       0x90 tmp/powerpc64-expand.o

LZMA_DEC10      0x0000000000000000      0x99c
 LZMA_DEC10     0x0000000000000000      0x99c tmp/powerpc64-expand.o

LZMA_DEC20      0x0000000000000000      0x99c
 LZMA_DEC20     0x0000000000000000      0x99c tmp/powerpc64-expand.o

LZMA_DEC30      0x0000000000000000       0x24
 LZMA_DEC30     0x0000000000000000       0x24 tmp/powerpc64-expand.o
